target datalayout = "e-m:e-p270:32:32-p271:32:32-p272:64:64-i64:64-i128:128-f80:128-n8:16:32:64-S128"
target triple = "x86_64-pc-linux-gnu"

; Function Attrs: inlinehint nounwind willreturn memory(read) uwtable
define available_externally i32 @tolower(i32 noundef %0) #6 {
  %2 = alloca i32, align 4
  store i32 %0, ptr %2, align 4
  %3 = load i32, ptr %2, align 4
  %4 = icmp sge i32 %3, -128
  br i1 %4, label %5, label %15

5:                                                ; preds = %1
  %6 = load i32, ptr %2, align 4
  %7 = icmp slt i32 %6, 256
  br i1 %7, label %8, label %15

8:                                                ; preds = %5
  %9 = call ptr @__ctype_tolower_loc() #14
  %10 = load ptr, ptr %9, align 8
  %11 = load i32, ptr %2, align 4
  %12 = sext i32 %11 to i64
  %13 = getelementptr inbounds i32, ptr %10, i64 %12
  %14 = load i32, ptr %13, align 4
  br label %17

15:                                               ; preds = %5, %1
  %16 = load i32, ptr %2, align 4
  br label %17

17:                                               ; preds = %15, %8
  %18 = phi i32 [ %14, %8 ], [ %16, %15 ]
  ret i32 %18
}

; Function Attrs: nounwind uwtable
define dso_local i32 @slurm_char_to_hex(i32 noundef %0) #0 {
  %2 = alloca i32, align 4
  %3 = alloca i32, align 4
  %4 = alloca i32, align 4
  %5 = alloca i32, align 4
  %6 = alloca i32, align 4
  %7 = alloca i32, align 4
  %8 = alloca i32, align 4
  store i32 %0, ptr %3, align 4
  call void @llvm.lifetime.start.p0(i64 4, ptr %4) #12
  call void @llvm.lifetime.start.p0(i64 4, ptr %5) #12
  %9 = load i32, ptr %3, align 4
  %10 = call i1 @llvm.is.constant.i32(i32 %9)
  br i1 %10, label %11, label %29

11:                                               ; preds = %1
  call void @llvm.lifetime.start.p0(i64 4, ptr %6) #12
  %12 = load i32, ptr %3, align 4
  store i32 %12, ptr %6, align 4
  %13 = load i32, ptr %6, align 4
  %14 = icmp slt i32 %13, -128
  br i1 %14, label %18, label %15

15:                                               ; preds = %11
  %16 = load i32, ptr %6, align 4
  %17 = icmp sgt i32 %16, 255
  br i1 %17, label %18, label %20

18:                                               ; preds = %15, %11
  %19 = load i32, ptr %6, align 4
  br label %27

20:                                               ; preds = %15
  %21 = call ptr @__ctype_tolower_loc() #14
  %22 = load ptr, ptr %21, align 8
  %23 = load i32, ptr %6, align 4
  %24 = sext i32 %23 to i64
  %25 = getelementptr inbounds i32, ptr %22, i64 %24
  %26 = load i32, ptr %25, align 4
  br label %27

27:                                               ; preds = %20, %18
  %28 = phi i32 [ %19, %18 ], [ %26, %20 ]
  store i32 %28, ptr %5, align 4
  call void @llvm.lifetime.end.p0(i64 4, ptr %6) #12
  br label %32

29:                                               ; preds = %1
  %30 = load i32, ptr %3, align 4
  %31 = call i32 @tolower(i32 noundef %30) #13
  store i32 %31, ptr %5, align 4
  br label %32

32:                                               ; preds = %29, %27
  %33 = load i32, ptr %5, align 4
  store i32 %33, ptr %7, align 4
  call void @llvm.lifetime.end.p0(i64 4, ptr %5) #12
  %34 = load i32, ptr %7, align 4
  store i32 %34, ptr %4, align 4
  %35 = load i32, ptr %3, align 4
  %36 = icmp sge i32 %35, 48
  br i1 %36, label %37, label %43

37:                                               ; preds = %32
  %38 = load i32, ptr %3, align 4
  %39 = icmp sle i32 %38, 57
  br i1 %39, label %40, label %43

40:                                               ; preds = %37
  %41 = load i32, ptr %3, align 4
  %42 = sub nsw i32 %41, 48
  store i32 %42, ptr %2, align 4
  store i32 1, ptr %8, align 4
  br label %53

43:                                               ; preds = %37, %32
  %44 = load i32, ptr %4, align 4
  %45 = icmp sge i32 %44, 97
  br i1 %45, label %46, label %52

46:                                               ; preds = %43
  %47 = load i32, ptr %4, align 4
  %48 = icmp sle i32 %47, 102
  br i1 %48, label %49, label %52

49:                                               ; preds = %46
  %50 = load i32, ptr %4, align 4
  %51 = add nsw i32 %50, -87
  store i32 %51, ptr %2, align 4
  store i32 1, ptr %8, align 4
  br label %53

52:                                               ; preds = %46, %43
  store i32 -1, ptr %2, align 4
  store i32 1, ptr %8, align 4
  br label %53

53:                                               ; preds = %52, %49, %40
  call void @llvm.lifetime.end.p0(i64 4, ptr %4) #12
  %54 = load i32, ptr %2, align 4
  ret i32 %54
}