; Function Attrs: mustprogress nofree nosync nounwind willreturn memory(read, inaccessiblemem: none) uwtable
define dso_local range(i32 -1, 16) i32 @slurm_char_to_hex(i32 noundef %0) local_unnamed_addr #15 {
  %2 = add i32 %0, 128
  %or.cond.i = icmp ult i32 %2, 384
  br i1 %or.cond.i, label %tolower.exit, label %tolower.exit.thread

tolower.exit:                                     ; preds = %1
  %3 = tail call ptr @__ctype_tolower_loc() #21
  %4 = load ptr, ptr %3, align 8
  %5 = sext i32 %0 to i64
  %6 = getelementptr inbounds i32, ptr %4, i64 %5
  %.021 = load i32, ptr %6, align 4
  %7 = add nsw i32 %0, -48
  %or.cond3 = icmp ult i32 %7, 10
  br i1 %or.cond3, label %10, label %tolower.exit.thread

tolower.exit.thread:                              ; preds = %1, %tolower.exit
  %.02125 = phi i32 [ %.021, %tolower.exit ], [ %0, %1 ]
  %8 = add i32 %.02125, -97
  %or.cond5 = icmp ult i32 %8, 6
  %9 = add nsw i32 %.02125, -87
  %spec.select = select i1 %or.cond5, i32 %9, i32 -1
  br label %10

10:                                               ; preds = %tolower.exit, %tolower.exit.thread
  %.0 = phi i32 [ %spec.select, %tolower.exit.thread ], [ %7, %tolower.exit ]
  ret i32 %.0
}